; Function Attrs: nofree nosync nounwind sspstrong memory(read, inaccessiblemem: none) uwtable
define ptr @cJSON_GetObjectItem(ptr noundef readonly %0, ptr noundef readonly %1) local_unnamed_addr #17 {
  %3 = icmp eq ptr %0, null
  %4 = icmp eq ptr %1, null
  %or.cond.i = or i1 %3, %4
  br i1 %or.cond.i, label %get_object_item.exit, label %5

5:                                                ; preds = %2
  %6 = getelementptr inbounds nuw i8, ptr %0, i64 16
  %7 = load ptr, ptr %6, align 8, !tbaa !25
  %.not2350.i = icmp eq ptr %7, null
  br i1 %.not2350.i, label %get_object_item.exit, label %.lr.ph52.i

.lr.ph52.i:                                       ; preds = %5, %case_insensitive_strcmp.exit.thread30.i
  %.251.i = phi ptr [ %38, %case_insensitive_strcmp.exit.thread30.i ], [ %7, %5 ]
  %8 = getelementptr inbounds nuw i8, ptr %.251.i, i64 56
  %9 = load ptr, ptr %8, align 8, !tbaa !26
  %10 = icmp eq ptr %9, null
  br i1 %10, label %case_insensitive_strcmp.exit.thread30.i, label %11

11:                                               ; preds = %.lr.ph52.i
  %12 = icmp eq ptr %1, %9
  br i1 %12, label %get_object_item.exit, label %.preheader.i.i

.preheader.i.i:                                   ; preds = %11
  %13 = tail call ptr @__ctype_tolower_loc() #33
  %14 = load ptr, ptr %13, align 8, !tbaa !54
  %15 = load i8, ptr %1, align 1, !tbaa !34
  %16 = zext i8 %15 to i64
  %17 = getelementptr inbounds nuw i32, ptr %14, i64 %16
  %18 = load i32, ptr %17, align 4, !tbaa !56
  %19 = load i8, ptr %9, align 1, !tbaa !34
  %20 = zext i8 %19 to i64
  %21 = getelementptr inbounds nuw i32, ptr %14, i64 %20
  %22 = load i32, ptr %21, align 4, !tbaa !56
  %23 = icmp eq i32 %18, %22
  br i1 %23, label %.lr.ph.i.i, label %case_insensitive_strcmp.exit.i

.lr.ph.i.i:                                       ; preds = %.preheader.i.i, %26
  %24 = phi i8 [ %29, %26 ], [ %15, %.preheader.i.i ]
  %.02030.i.i = phi ptr [ %27, %26 ], [ %1, %.preheader.i.i ]
  %.02129.i.i = phi ptr [ %28, %26 ], [ %9, %.preheader.i.i ]
  %25 = icmp eq i8 %24, 0
  br i1 %25, label %get_object_item.exit, label %26

26:                                               ; preds = %.lr.ph.i.i
  %27 = getelementptr inbounds nuw i8, ptr %.02030.i.i, i64 1
  %28 = getelementptr inbounds nuw i8, ptr %.02129.i.i, i64 1
  %29 = load i8, ptr %27, align 1, !tbaa !34
  %30 = zext i8 %29 to i64
  %31 = getelementptr inbounds nuw i32, ptr %14, i64 %30
  %32 = load i32, ptr %31, align 4, !tbaa !56
  %33 = load i8, ptr %28, align 1, !tbaa !34
  %34 = zext i8 %33 to i64
  %35 = getelementptr inbounds nuw i32, ptr %14, i64 %34
  %36 = load i32, ptr %35, align 4, !tbaa !56
  %37 = icmp eq i32 %32, %36
  br i1 %37, label %.lr.ph.i.i, label %case_insensitive_strcmp.exit.i

case_insensitive_strcmp.exit.i:                   ; preds = %26, %.preheader.i.i
  %.lcssa27.i.i = phi i32 [ %18, %.preheader.i.i ], [ %32, %26 ]
  %.lcssa.i.i = phi i32 [ %22, %.preheader.i.i ], [ %36, %26 ]
  %.not24.i = icmp eq i32 %.lcssa27.i.i, %.lcssa.i.i
  br i1 %.not24.i, label %get_object_item.exit, label %case_insensitive_strcmp.exit.thread30.i

case_insensitive_strcmp.exit.thread30.i:          ; preds = %case_insensitive_strcmp.exit.i, %.lr.ph52.i
  %38 = load ptr, ptr %.251.i, align 8, !tbaa !24
  %.not23.i = icmp eq ptr %38, null
  br i1 %.not23.i, label %get_object_item.exit, label %.lr.ph52.i

get_object_item.exit:                             ; preds = %11, %case_insensitive_strcmp.exit.i, %case_insensitive_strcmp.exit.thread30.i, %.lr.ph.i.i, %2, %5
  %.019.i = phi ptr [ null, %2 ], [ null, %5 ], [ %.251.i, %.lr.ph.i.i ], [ %.251.i, %11 ], [ %.251.i, %case_insensitive_strcmp.exit.i ], [ null, %case_insensitive_strcmp.exit.thread30.i ]
  ret ptr %.019.i
}